; Function Attrs: uwtable
define noundef i32 @_ZTv0_n64_N3zmq29zap_client_common_handshake_t17zap_msg_availableEv(ptr noundef %this) unnamed_addr #8 align 2 {
entry:
  %0 = load ptr, ptr %this, align 8
  %1 = getelementptr inbounds i8, ptr %0, i64 -64
  %2 = load i64, ptr %1, align 8
  %3 = getelementptr inbounds i8, ptr %this, i64 %2
  %call = tail call noundef i32 @_ZN3zmq29zap_client_common_handshake_t17zap_msg_availableEv(ptr noundef nonnull align 8 dereferenceable(80) %3), !range !9
  ret i32 %call
}